target datalayout = "e-m:e-p270:32:32-p271:32:32-p272:64:64-i64:64-i128:128-f80:128-n8:16:32:64-S128"
target triple = "x86_64-pc-linux-gnu"

%struct.WriteManifestState = type { [1024 x i8], ptr }

@.str.252 = private unnamed_addr constant [33 x i8] c"could not write to file \22%s\22: %m\00", align 1

; Function Attrs: nounwind uwtable
define internal void @ReceiveBackupManifestChunk(i64 noundef %0, ptr noundef %1, ptr noundef %2) #0 {
  %4 = alloca i64, align 8
  %5 = alloca ptr, align 8
  %6 = alloca ptr, align 8
  %7 = alloca ptr, align 8
  store i64 %0, ptr %4, align 8
  store ptr %1, ptr %5, align 8
  store ptr %2, ptr %6, align 8
  call void @llvm.lifetime.start.p0(i64 8, ptr %7) #12
  %8 = load ptr, ptr %6, align 8
  store ptr %8, ptr %7, align 8
  %9 = call ptr @__errno_location() #15
  store i32 0, ptr %9, align 4
  %10 = load ptr, ptr %5, align 8
  %11 = load i64, ptr %4, align 8
  %12 = load ptr, ptr %7, align 8
  %13 = getelementptr inbounds nuw %struct.WriteManifestState, ptr %12, i32 0, i32 1
  %14 = load ptr, ptr %13, align 8
  %15 = call i64 @fwrite(ptr noundef %10, i64 noundef %11, i64 noundef 1, ptr noundef %14)
  %16 = icmp ne i64 %15, 1
  br i1 %16, label %17, label %30

17:                                               ; preds = %3
  %18 = call ptr @__errno_location() #15
  %19 = load i32, ptr %18, align 4
  %20 = icmp eq i32 %19, 0
  br i1 %20, label %21, label %23

21:                                               ; preds = %17
  %22 = call ptr @__errno_location() #15
  store i32 28, ptr %22, align 4
  br label %23

23:                                               ; preds = %21, %17
  br label %24

24:                                               ; preds = %23
  %25 = load ptr, ptr %7, align 8
  %26 = getelementptr inbounds nuw %struct.WriteManifestState, ptr %25, i32 0, i32 0
  %27 = getelementptr inbounds [1024 x i8], ptr %26, i64 0, i64 0
  call void (i32, i32, ptr, ...) @pg_log_generic(i32 noundef 4, i32 noundef 0, ptr noundef @.str.252, ptr noundef %27)
  call void @exit(i32 noundef 1) #14
  unreachable

28:                                               ; No predecessors!
  br label %29

29:                                               ; preds = %28
  br label %30

30:                                               ; preds = %29, %3
  call void @llvm.lifetime.end.p0(i64 8, ptr %7) #12
  ret void
}