; Function Attrs: nounwind uwtable
define internal void @ReceiveBackupManifestChunk(i64 noundef %0, ptr noundef captures(none) %1, ptr noundef %2) #0 {
  %4 = tail call ptr @__errno_location() #21
  store i32 0, ptr %4, align 4
  %5 = getelementptr inbounds nuw i8, ptr %2, i64 1024
  %6 = load ptr, ptr %5, align 8
  %7 = tail call i64 @fwrite(ptr noundef %1, i64 noundef %0, i64 noundef 1, ptr noundef %6)
  %.not = icmp eq i64 %7, 1
  br i1 %.not, label %13, label %8

8:                                                ; preds = %3
  %9 = load i32, ptr %4, align 4
  %10 = icmp eq i32 %9, 0
  br i1 %10, label %11, label %12

11:                                               ; preds = %8
  store i32 28, ptr %4, align 4
  br label %12

12:                                               ; preds = %8, %11
  tail call void (i32, i32, ptr, ...) @pg_log_generic(i32 noundef 4, i32 noundef 0, ptr noundef nonnull @.str.252, ptr noundef nonnull %2) #17
  tail call void @exit(i32 noundef 1) #20
  unreachable

13:                                               ; preds = %3
  ret void
}